(lp1
(iapplication_mgmt
Application
p2
(dp3
S'color'
p4
S'none'
p5
sS'display_name'
p6
S'place holder'
p7
sS'name'
p8
g7
sS'prod_score'
p9
I5
sS'focus'
p10
S'blank'
p11
sba(iapplication_mgmt
Application
p12
(dp13
g4
S'#B9B9B9'
p14
sg6
S'Nautilus'
p15
sg8
S'Nautilus'
p16
sg9
I5
sg10
I00
sba(iapplication_mgmt
Application
p17
(dp18
g4
S'#29850c'
p19
sg6
S'Gvim'
p20
sg8
S'Gvim'
p21
sg9
I5
sg10
I00
sba(iapplication_mgmt
Application
p22
(dp23
g4
S'none'
p24
sg6
S'Gnome-mines'
p25
sg8
g25
sg9
I5
sg10
I00
sba(iapplication_mgmt
Application
p26
(dp27
g4
S'#fcaf3e'
p28
sg6
S'Solitare'
p29
sg8
S'Sol'
p30
sg9
I5
sg10
I00
sba(iapplication_mgmt
Application
p31
(dp32
g4
S'#fce94f'
p33
sg6
S'Shell'
p34
sg8
S'Gnome-terminal'
p35
sg9
I5
sg10
I00
sba(iapplication_mgmt
Application
p36
(dp37
g4
S'#c4a000'
p38
sg6
S'File-roller'
p39
sg8
S'File-roller'
p40
sg9
I5
sg10
I00
sba(iapplication_mgmt
Application
p41
(dp42
g4
S'#75507b'
p43
sg6
S'Gnome-calculator'
p44
sg8
S'Gnome-calculator'
p45
sg9
I5
sg10
I00
sba(iapplication_mgmt
Application
p46
(dp47
g4
S'#2D2A21'
p48
sg6
S'Evince'
p49
sg8
S'Evince'
p50
sg9
I5
sg10
I00
sba(iapplication_mgmt
Application
p51
(dp52
g4
S'#204a87'
p53
sg6
S'Chromium'
p54
sg8
S'Chromium-browser'
p55
sg9
I5
sg10
I00
sba(iapplication_mgmt
Application
p56
(dp57
g4
S'#2992d5'
p58
sg6
S'Rhythmbox'
p59
sg8
S'Rhythmbox'
p60
sg9
I5
sg10
I00
sba(iapplication_mgmt
Application
p61
(dp62
g4
S'none'
p63
sg6
(iapplication_mgmt
Application
p64
(dp65
g4
g63
sg6
S'Blank'
p66
sg8
g66
sg9
I5
sg10
I00
sbsg8
g64
sg9
I5
sg10
I00
sba(iapplication_mgmt
Application
p67
(dp68
g4
S'#B9B9B9'
p69
sg6
S'??'
p70
sg8
S'.'
sg9
I5
sg10
I00
sba(iapplication_mgmt
Application
p71
(dp72
g4
S'none'
p73
sg6
S'net-minecraft-bootstrap-Bootstrap'
p74
sg8
g74
sg9
I5
sg10
I00
sba(iapplication_mgmt
Application
p75
(dp76
g4
S'none'
p77
sg6
S'.8'
p78
sg8
g78
sg9
I5
sg10
I00
sba(iapplication_mgmt
Application
p79
(dp80
g4
S'#403E3A'
p81
sg6
S''
sg8
S''
sg9
I5
sg10
I00
sba(iapplication_mgmt
Application
p82
(dp83
g4
S'#B9B9B9'
p84
sg6
S'Blender'
p85
sg8
S'Blender'
p86
sg9
I5
sg10
I00
sba(iapplication_mgmt
Application
p87
(dp88
g4
S'none'
p89
sg6
S'Unity-control-center'
p90
sg8
g90
sg9
I5
sg10
I00
sba(iapplication_mgmt
Application
p91
(dp92
g4
S'#403E3A'
p93
sg6
S'Gimp'
p94
sg8
S'Gimp-2.8'
p95
sg9
I5
sg10
I00
sba(iapplication_mgmt
Application
p96
(dp97
g4
S'#403E3A'
p98
sg6
S'text edit'
p99
sg8
S'Gedit'
p100
sg9
I5
sg10
I00
sba(iapplication_mgmt
Application
p101
(dp102
g4
S'#B9B9B9'
p103
sg6
S'Update-manager'
p104
sg8
S'Update-manager'
p105
sg9
I5
sg10
I00
sba(iapplication_mgmt
Application
p106
(dp107
g4
g43
sg6
g44
sg8
S'Gnome-calculator'
p108
sg9
I5
sg10
I00
sba(iapplication_mgmt
Application
p109
(dp110
g4
g98
sg6
g99
sg8
S'Gedit'
p111
sg9
I5
sg10
I00
sba(iapplication_mgmt
Application
p112
(dp113
g4
g28
sg6
g29
sg8
S'Sol'
p114
sg9
I5
sg10
I00
sba(iapplication_mgmt
Application
p115
(dp116
g4
g48
sg6
g49
sg8
S'Evince'
p117
sg9
I5
sg10
I00
sba(iapplication_mgmt
Application
p118
(dp119
g4
g53
sg6
g54
sg8
S'Chromium-browser'
p120
sg9
I5
sg10
I00
sba(iapplication_mgmt
Application
p121
(dp122
g4
g58
sg6
g59
sg8
S'Rhythmbox'
p123
sg9
I5
sg10
I00
sba(iapplication_mgmt
Application
p124
(dp125
g4
g43
sg6
g44
sg8
S'Gnome-calculator'
p126
sg9
I5
sg10
I00
sba(iapplication_mgmt
Application
p127
(dp128
g4
g98
sg6
g99
sg8
S'Gedit'
p129
sg9
I5
sg10
I00
sba(iapplication_mgmt
Application
p130
(dp131
g4
g28
sg6
g29
sg8
S'Sol'
p132
sg9
I5
sg10
I00
sba(iapplication_mgmt
Application
p133
(dp134
g4
g48
sg6
g49
sg8
S'Evince'
p135
sg9
I5
sg10
I00
sba(iapplication_mgmt
Application
p136
(dp137
g4
g53
sg6
g54
sg8
S'Chromium-browser'
p138
sg9
I5
sg10
I00
sba(iapplication_mgmt
Application
p139
(dp140
g4
g58
sg6
g59
sg8
S'Rhythmbox'
p141
sg9
I5
sg10
I00
sba(iapplication_mgmt
Application
p142
(dp143
g4
g43
sg6
g44
sg8
S'Gnome-calculator'
p144
sg9
I5
sg10
I00
sba(iapplication_mgmt
Application
p145
(dp146
g4
g98
sg6
g99
sg8
S'Gedit'
p147
sg9
I5
sg10
I00
sba(iapplication_mgmt
Application
p148
(dp149
g4
g28
sg6
g29
sg8
S'Sol'
p150
sg9
I5
sg10
I00
sba(iapplication_mgmt
Application
p151
(dp152
g4
g48
sg6
g49
sg8
S'Evince'
p153
sg9
I5
sg10
I00
sba(iapplication_mgmt
Application
p154
(dp155
g4
g53
sg6
g54
sg8
S'Chromium-browser'
p156
sg9
I5
sg10
I00
sba(iapplication_mgmt
Application
p157
(dp158
g4
g58
sg6
g59
sg8
S'Rhythmbox'
p159
sg9
I5
sg10
I00
sba(iapplication_mgmt
Application
p160
(dp161
g4
g43
sg6
g44
sg8
S'Gnome-calculator'
p162
sg9
I5
sg10
I00
sba(iapplication_mgmt
Application
p163
(dp164
g4
g98
sg6
g99
sg8
S'Gedit'
p165
sg9
I5
sg10
I00
sba(iapplication_mgmt
Application
p166
(dp167
g4
g28
sg6
g29
sg8
S'Sol'
p168
sg9
I5
sg10
I00
sba(iapplication_mgmt
Application
p169
(dp170
g4
g48
sg6
g49
sg8
S'Evince'
p171
sg9
I5
sg10
I00
sba(iapplication_mgmt
Application
p172
(dp173
g4
g53
sg6
g54
sg8
S'Chromium-browser'
p174
sg9
I5
sg10
I00
sba(iapplication_mgmt
Application
p175
(dp176
g4
g58
sg6
g59
sg8
S'Rhythmbox'
p177
sg9
I5
sg10
I00
sba(iapplication_mgmt
Application
p178
(dp179
g4
g43
sg6
g44
sg8
S'Gnome-calculator'
p180
sg9
I5
sg10
I00
sba(iapplication_mgmt
Application
p181
(dp182
g4
g98
sg6
g99
sg8
S'Gedit'
p183
sg9
I5
sg10
I00
sba(iapplication_mgmt
Application
p184
(dp185
g4
g28
sg6
g29
sg8
S'Sol'
p186
sg9
I5
sg10
I00
sba(iapplication_mgmt
Application
p187
(dp188
g4
g48
sg6
g49
sg8
S'Evince'
p189
sg9
I5
sg10
I00
sba(iapplication_mgmt
Application
p190
(dp191
g4
g53
sg6
g54
sg8
S'Chromium-browser'
p192
sg9
I5
sg10
I00
sba(iapplication_mgmt
Application
p193
(dp194
g4
g58
sg6
g59
sg8
S'Rhythmbox'
p195
sg9
I5
sg10
I00
sba(iback.application_mgmt
Application
p196
(dp197
g4
S'#a40000'
p198
sg6
S'Devhelp'
p199
sg8
S'Devhelp'
p200
sg9
I5
sg10
I00
sba(iback.application_mgmt
Application
p201
(dp202
g4
S'#73d216'
p203
sg6
S'Glade'
p204
sg8
S'Glade'
p205
sg9
I5
sg10
I00
sba(iback.application_mgmt
Application
p206
(dp207
g4
S'#B9B9B9'
p208
sg6
S'hou'
p209
sg8
S'New_display.py'
p210
sg9
I5
sg10
I00
sba(iback.application_mgmt
Application
p211
(dp212
g4
S'none'
p213
sg6
S'Vlc'
p214
sg8
g214
sg9
I5
sg10
I00
sba(iback.application_mgmt
Application
p215
(dp216
g4
S'#B9B9B9'
p217
sg6
S'Gnome-mahjongg'
p218
sg8
S'Gnome-mahjongg'
p219
sg9
I5
sg10
I00
sba(iback.application_mgmt
Application
p220
(dp221
g4
S'#403E3A'
p222
sg6
S'Gnome-sudoku'
p223
sg8
S'Gnome-sudoku'
p224
sg9
I5
sg10
I00
sba(iback.application_mgmt
Application
p225
(dp226
g4
S'none'
p227
sg6
S'Yelp'
p228
sg8
g228
sg9
I5
sg10
I00
sba(iback.application_mgmt
Application
p229
(dp230
g4
S'#B9B9B9'
p231
sg6
S'Steam'
p232
sg8
S'Steam'
p233
sg9
I5
sg10
I00
sba(iback.application_mgmt
Application
p234
(dp235
g4
S'#9E9BAE'
p236
sg6
S'SuperMeatBoy'
p237
sg8
S'SuperMeatBoy'
p238
sg9
I5
sg10
I00
sba(iback.application_mgmt
Application
p239
(dp240
g4
S'none'
p241
sg6
S'Gnome-screenshot'
p242
sg8
g242
sg9
I5
sg10
I00
sba(iback.application_mgmt
Application
p243
(dp244
g4
S'#ce5c00'
p245
sg6
S'Firefox'
p246
sg8
S'Firefox'
p247
sg9
I5
sg10
I00
sba(iback.application_mgmt
Application
p248
(dp249
g4
S'none'
p250
sg6
S'Eog'
p251
sg8
g251
sg9
I5
sg10
I00
sba(iback.application_mgmt
Application
p252
(dp253
g4
S'none'
p254
sg6
S'Ccsm'
p255
sg8
g255
sg9
I5
sg10
I00
sba(iback.application_mgmt
Application
p256
(dp257
g4
S'none'
p258
sg6
S'Software-center'
p259
sg8
g259
sg9
I5
sg10
I00
sba(iback.application_mgmt
Application
p260
(dp261
g4
S'none'
p262
sg6
S'Dconf-editor'
p263
sg8
g263
sg9
I5
sg10
I00
sba(iback.application_mgmt
Application
p264
(dp265
g4
S'none'
p266
sg6
S'dota_linux'
p267
sg8
g267
sg9
I5
sg10
I00
sba(iback.application_mgmt
Application
p268
(dp269
g4
S'#B9B9B9'
p270
sg6
S'Skype'
p271
sg8
S'Skype'
p272
sg9
I5
sg10
I00
sba(iback.application_mgmt
Application
p273
(dp274
g4
S'#729fcf'
p275
sg6
S'bit torrent'
p276
sg8
S'Deluge'
p277
sg9
I5
sg10
I00
sba(iback.application_mgmt
Application
p278
(dp279
g4
S'#B9B9B9'
p280
sg6
S'Chromium'
p281
sg8
S'Chromium'
p282
sg9
I5
sg10
I00
sba.